target datalayout = "e-m:e-p270:32:32-p271:32:32-p272:64:64-i64:64-i128:128-f80:128-n8:16:32:64-S128"
target triple = "x86_64-pc-linux-gnu"

%class.symbol = type { ptr }

@.str.41 = private unnamed_addr constant [5 x i8] c"band\00", align 1
@.str.42 = private unnamed_addr constant [4 x i8] c"shl\00", align 1
@.str.43 = private unnamed_addr constant [5 x i8] c"ashr\00", align 1
@.str.44 = private unnamed_addr constant [5 x i8] c"lshr\00", align 1
@.str.45 = private unnamed_addr constant [113 x i8] c"generated/home/dtcxzyw/WorkSpace/Projects/compilers/llvm-opt-benchmark/bench/z3/z3/src/ast/arith_decl_plugin.cpp\00", align 1
@.str.46 = private unnamed_addr constant [29 x i8] c"UNEXPECTED CODE WAS REACHED.\00", align 1

; Function Attrs: mustprogress nounwind uwtable
define linkonce_odr hidden void @_ZN6symbolC2Ev(ptr noundef nonnull align 8 dereferenceable(8) %0) unnamed_addr #5 comdat align 2 {
  %2 = alloca ptr, align 8
  store ptr %0, ptr %2, align 8, !tbaa !49
  %3 = load ptr, ptr %2, align 8
  %4 = getelementptr inbounds nuw %class.symbol, ptr %3, i32 0, i32 0
  store ptr null, ptr %4, align 8, !tbaa !187
  ret void
}

; Function Attrs: mustprogress uwtable
define hidden ptr @_ZNK17arith_decl_plugin9bv_symbolEi(ptr noundef nonnull align 8 dereferenceable(441) %0, i32 noundef %1) #4 align 2 {
  %3 = alloca %class.symbol, align 8
  %4 = alloca ptr, align 8
  %5 = alloca i32, align 4
  store ptr %0, ptr %4, align 8, !tbaa !3
  store i32 %1, ptr %5, align 4, !tbaa !36
  %6 = load i32, ptr %5, align 4, !tbaa !36
  switch i32 %6, label %11 [
    i32 36, label %7
    i32 37, label %8
    i32 38, label %9
    i32 39, label %10
  ]

7:                                                ; preds = %2
  call void @_ZN6symbolC1EPKc(ptr noundef nonnull align 8 dereferenceable(8) %3, ptr noundef @.str.41)
  br label %13

8:                                                ; preds = %2
  call void @_ZN6symbolC1EPKc(ptr noundef nonnull align 8 dereferenceable(8) %3, ptr noundef @.str.42)
  br label %13

9:                                                ; preds = %2
  call void @_ZN6symbolC1EPKc(ptr noundef nonnull align 8 dereferenceable(8) %3, ptr noundef @.str.43)
  br label %13

10:                                               ; preds = %2
  call void @_ZN6symbolC1EPKc(ptr noundef nonnull align 8 dereferenceable(8) %3, ptr noundef @.str.44)
  br label %13

11:                                               ; preds = %2
  call void @_Z26notify_assertion_violationPKciS0_(ptr noundef @.str.45, i32 noundef 515, ptr noundef @.str.46)
  call void @_Z18invoke_exit_actionj(i32 noundef 114)
  br label %12

12:                                               ; preds = %11
  call void @llvm.memset.p0.i64(ptr align 8 %3, i8 0, i64 8, i1 false)
  call void @_ZN6symbolC2Ev(ptr noundef nonnull align 8 dereferenceable(8) %3) #3
  br label %13

13:                                               ; preds = %12, %10, %9, %8, %7
  %14 = getelementptr inbounds nuw %class.symbol, ptr %3, i32 0, i32 0
  %15 = load ptr, ptr %14, align 8
  ret ptr %15
}