; Function Attrs: mustprogress uwtable
define hidden ptr @_ZNK17arith_decl_plugin9bv_symbolEi(ptr nonnull readnone align 8 captures(none) %0, i32 noundef %1) local_unnamed_addr #3 align 2 {
  %3 = alloca %class.symbol, align 8
  switch i32 %1, label %8 [
    i32 36, label %4
    i32 37, label %5
    i32 38, label %6
    i32 39, label %7
  ]

4:                                                ; preds = %2
  call void @_ZN6symbolC1EPKc(ptr noundef nonnull align 8 dereferenceable(8) %3, ptr noundef nonnull @.str.41)
  br label %9

5:                                                ; preds = %2
  call void @_ZN6symbolC1EPKc(ptr noundef nonnull align 8 dereferenceable(8) %3, ptr noundef nonnull @.str.42)
  br label %9

6:                                                ; preds = %2
  call void @_ZN6symbolC1EPKc(ptr noundef nonnull align 8 dereferenceable(8) %3, ptr noundef nonnull @.str.43)
  br label %9

7:                                                ; preds = %2
  call void @_ZN6symbolC1EPKc(ptr noundef nonnull align 8 dereferenceable(8) %3, ptr noundef nonnull @.str.44)
  br label %9

8:                                                ; preds = %2
  tail call void @_Z26notify_assertion_violationPKciS0_(ptr noundef nonnull @.str.45, i32 noundef 515, ptr noundef nonnull @.str.46)
  tail call void @_Z18invoke_exit_actionj(i32 noundef 114)
  store ptr null, ptr %3, align 8, !tbaa !189
  br label %9

9:                                                ; preds = %8, %7, %6, %5, %4
  %10 = load ptr, ptr %3, align 8
  ret ptr %10
}